target datalayout = "e-m:e-p270:32:32-p271:32:32-p272:64:64-i64:64-i128:128-f80:128-n8:16:32:64-S128"
target triple = "x86_64-unknown-linux-gnu"

%struct.ttm_resource_manager_func = type { ptr, ptr, ptr, ptr, ptr }
%struct.list_head = type { ptr, ptr }

@ttm_sys_manager_func = internal constant %struct.ttm_resource_manager_func { ptr @ttm_sys_man_alloc, ptr @ttm_sys_man_free, ptr null, ptr null, ptr null }, align 8
@kmalloc_caches = external dso_local local_unnamed_addr global [3 x [14 x ptr]], align 16
@.str.1 = private unnamed_addr constant [31 x i8] c"include/drm/ttm/ttm_resource.h\00", align 1

; Function Attrs: fn_ret_thunk_extern nounwind null_pointer_is_valid
define dso_local void @ttm_sys_man_init(ptr noundef %0) local_unnamed_addr #0 align 16 {
  %2 = getelementptr inbounds i8, ptr %0, i64 24
  %3 = getelementptr inbounds i8, ptr %0, i64 25
  store i8 1, ptr %3, align 1
  %4 = getelementptr inbounds i8, ptr %0, i64 48
  store ptr @ttm_sys_manager_func, ptr %4, align 8
  tail call void @ttm_resource_manager_init(ptr noundef %2, ptr noundef %0, i64 noundef 0) #3
  %5 = getelementptr inbounds i8, ptr %0, i64 144
  store ptr %2, ptr %5, align 8
  %6 = getelementptr inbounds i8, ptr %0, i64 72
  br label %7

7:                                                ; preds = %13, %1
  %8 = phi i64 [ 0, %1 ], [ %14, %13 ]
  %9 = getelementptr [4 x %struct.list_head], ptr %6, i64 0, i64 %8
  %10 = load volatile ptr, ptr %9, align 8
  %11 = icmp eq ptr %10, %9
  br i1 %11, label %13, label %12, !prof !5

12:                                               ; preds = %7
  tail call void asm sideeffect "327: nop\0A\09.pushsection .discard.instr_begin\0A\09.long 327b - .\0A\09.popsection\0A\09", "i,~{dirflag},~{fpsr},~{flags}"(i32 327) #3, !srcloc !6
  tail call void asm sideeffect "1:\09.byte 0x0f, 0x0b\0A.pushsection __bug_table,\22aw\22\0A2:\09.long 1b - .\09# bug_entry::bug_addr\0A\09.long ${0:c} - .\09# bug_entry::file\0A\09.word ${1:c}\09# bug_entry::line\0A\09.word ${2:c}\09# bug_entry::flags\0A\09.org 2b+${3:c}\0A.popsection\0A998:\0A\09.pushsection .discard.reachable\0A\09.long 998b\0A\09.popsection\0A\09", "i,i,i,i,~{dirflag},~{fpsr},~{flags}"(ptr nonnull @.str.1, i32 313, i32 2305, i64 12) #3, !srcloc !7
  tail call void asm sideeffect "328: nop\0A\09.pushsection .discard.instr_end\0A\09.long 328b - .\0A\09.popsection\0A\09", "i,~{dirflag},~{fpsr},~{flags}"(i32 328) #3, !srcloc !8
  br label %13

13:                                               ; preds = %12, %7
  %14 = add nuw nsw i64 %8, 1
  %15 = icmp eq i64 %14, 4
  br i1 %15, label %16, label %7, !llvm.loop !9

16:                                               ; preds = %13
  store i8 1, ptr %2, align 8
  ret void
}

; Function Attrs: null_pointer_is_valid
declare dso_local void @ttm_resource_manager_init(ptr noundef, ptr noundef, i64 noundef) local_unnamed_addr #1

; Function Attrs: fn_ret_thunk_extern nounwind null_pointer_is_valid
define internal noundef i32 @ttm_sys_man_alloc(ptr nocapture readnone %0, ptr noundef %1, ptr noundef %2, ptr nocapture noundef writeonly %3) #0 align 16 {
  %5 = load ptr, ptr getelementptr inbounds ([3 x [14 x ptr]], ptr @kmalloc_caches, i64 0, i64 0, i64 1), align 8
  %6 = tail call noalias noundef align 8 dereferenceable_or_null(72) ptr @kmalloc_trace(ptr noundef %5, i32 noundef 3520, i64 noundef 72) #4
  store ptr %6, ptr %3, align 8
  %7 = icmp eq ptr %6, null
  br i1 %7, label %9, label %8

8:                                                ; preds = %4
  tail call void @ttm_resource_init(ptr noundef %1, ptr noundef %2, ptr noundef nonnull %6) #3
  br label %9

9:                                                ; preds = %8, %4
  %10 = phi i32 [ 0, %8 ], [ -12, %4 ]
  ret i32 %10
}

; Function Attrs: fn_ret_thunk_extern nounwind null_pointer_is_valid
define internal void @ttm_sys_man_free(ptr noundef %0, ptr noundef %1) #0 align 16 {
  tail call void @ttm_resource_fini(ptr noundef %0, ptr noundef %1) #3
  tail call void @kfree(ptr noundef %1) #3
  ret void
}

; Function Attrs: null_pointer_is_valid
declare dso_local void @ttm_resource_init(ptr noundef, ptr noundef, ptr noundef) local_unnamed_addr #1

; Function Attrs: null_pointer_is_valid allocsize(2)
declare dso_local noalias ptr @kmalloc_trace(ptr noundef, i32 noundef, i64 noundef) local_unnamed_addr #2

; Function Attrs: null_pointer_is_valid
declare dso_local void @ttm_resource_fini(ptr noundef, ptr noundef) local_unnamed_addr #1

; Function Attrs: null_pointer_is_valid
declare dso_local void @kfree(ptr noundef) local_unnamed_addr #1


!llvm.module.flags = !{!0, !1, !2, !3, !4}

!0 = !{i32 1, !"wchar_size", i32 2}
!1 = !{i32 8, !"cf-protection-branch", i32 1}
!2 = !{i32 4, !"function_return_thunk_extern", i32 1}
!3 = !{i32 4, !"indirect_branch_cs_prefix", i32 1}
!4 = !{i32 4, !"SkipRaxSetup", i32 1}
!5 = !{!"branch_weights", i32 2000, i32 1}
!6 = !{i64 2154403192, i64 2154403001, i64 2154403053, i64 2154403099, i64 2154403127}
!7 = !{i64 2154403266, i64 2154403295, i64 2154403341, i64 2154403399, i64 2154403453, i64 2154403507, i64 2154403562, i64 2154403593, i64 2154403901, i64 2154403907, i64 2154403954, i64 2154403977, i64 2154404003}
!8 = !{i64 2154404466, i64 2154404277, i64 2154404327, i64 2154404373, i64 2154404401}
!9 = distinct !{!9, !10, !11}
!10 = !{!"llvm.loop.mustprogress"}
!11 = !{!"llvm.loop.unroll.disable"}
